target datalayout = "e-m:e-p270:32:32-p271:32:32-p272:64:64-i64:64-i128:128-f80:128-n8:16:32:64-S128"
target triple = "x86_64-pc-linux-gnu"

%struct.UFILE = type { ptr, ptr, ptr, %struct.u_localized_string, [1024 x i16], i8, i32 }
%struct.u_localized_string = type { ptr, ptr, ptr, %struct.ULocaleBundle }
%struct.ULocaleBundle = type { ptr, [5 x ptr], i8 }

; Function Attrs: mustprogress uwtable
define signext i8 @ufile_getch32_77(ptr noundef %0, ptr noundef %1) #0 {
  %3 = alloca ptr, align 8
  %4 = alloca ptr, align 8
  %5 = alloca i8, align 1
  %6 = alloca ptr, align 8
  %7 = alloca i16, align 2
  store ptr %0, ptr %3, align 8, !tbaa !3
  store ptr %1, ptr %4, align 8, !tbaa !42
  call void @llvm.lifetime.start.p0(i64 1, ptr %5) #10
  store i8 0, ptr %5, align 1, !tbaa !32
  call void @llvm.lifetime.start.p0(i64 8, ptr %6) #10
  %8 = load ptr, ptr %4, align 8, !tbaa !42
  store i32 65535, ptr %8, align 4, !tbaa !31
  %9 = load ptr, ptr %3, align 8, !tbaa !3
  %10 = getelementptr inbounds nuw %struct.UFILE, ptr %9, i32 0, i32 3
  store ptr %10, ptr %6, align 8, !tbaa !49
  %11 = load ptr, ptr %6, align 8, !tbaa !49
  %12 = getelementptr inbounds nuw %struct.u_localized_string, ptr %11, i32 0, i32 0
  %13 = load ptr, ptr %12, align 8, !tbaa !52
  %14 = getelementptr inbounds i16, ptr %13, i64 1
  %15 = load ptr, ptr %6, align 8, !tbaa !49
  %16 = getelementptr inbounds nuw %struct.u_localized_string, ptr %15, i32 0, i32 1
  %17 = load ptr, ptr %16, align 8, !tbaa !51
  %18 = icmp uge ptr %14, %17
  br i1 %18, label %19, label %21

19:                                               ; preds = %2
  %20 = load ptr, ptr %3, align 8, !tbaa !3
  call void @_Z26ufile_fill_uchar_buffer_77P5UFILE(ptr noundef %20)
  br label %21

21:                                               ; preds = %19, %2
  %22 = load ptr, ptr %6, align 8, !tbaa !49
  %23 = getelementptr inbounds nuw %struct.u_localized_string, ptr %22, i32 0, i32 0
  %24 = load ptr, ptr %23, align 8, !tbaa !52
  %25 = load ptr, ptr %6, align 8, !tbaa !49
  %26 = getelementptr inbounds nuw %struct.u_localized_string, ptr %25, i32 0, i32 1
  %27 = load ptr, ptr %26, align 8, !tbaa !51
  %28 = icmp ult ptr %24, %27
  br i1 %28, label %29, label %68

29:                                               ; preds = %21
  %30 = load ptr, ptr %6, align 8, !tbaa !49
  %31 = getelementptr inbounds nuw %struct.u_localized_string, ptr %30, i32 0, i32 0
  %32 = load ptr, ptr %31, align 8, !tbaa !52
  %33 = getelementptr inbounds nuw i16, ptr %32, i32 1
  store ptr %33, ptr %31, align 8, !tbaa !52
  %34 = load i16, ptr %32, align 2, !tbaa !40
  %35 = zext i16 %34 to i32
  %36 = load ptr, ptr %4, align 8, !tbaa !42
  store i32 %35, ptr %36, align 4, !tbaa !31
  %37 = load ptr, ptr %4, align 8, !tbaa !42
  %38 = load i32, ptr %37, align 4, !tbaa !31
  %39 = and i32 %38, -1024
  %40 = icmp eq i32 %39, 55296
  br i1 %40, label %41, label %66

41:                                               ; preds = %29
  %42 = load ptr, ptr %6, align 8, !tbaa !49
  %43 = getelementptr inbounds nuw %struct.u_localized_string, ptr %42, i32 0, i32 0
  %44 = load ptr, ptr %43, align 8, !tbaa !52
  %45 = load ptr, ptr %6, align 8, !tbaa !49
  %46 = getelementptr inbounds nuw %struct.u_localized_string, ptr %45, i32 0, i32 1
  %47 = load ptr, ptr %46, align 8, !tbaa !51
  %48 = icmp ult ptr %44, %47
  br i1 %48, label %49, label %63

49:                                               ; preds = %41
  call void @llvm.lifetime.start.p0(i64 2, ptr %7) #10
  %50 = load ptr, ptr %6, align 8, !tbaa !49
  %51 = getelementptr inbounds nuw %struct.u_localized_string, ptr %50, i32 0, i32 0
  %52 = load ptr, ptr %51, align 8, !tbaa !52
  %53 = getelementptr inbounds nuw i16, ptr %52, i32 1
  store ptr %53, ptr %51, align 8, !tbaa !52
  %54 = load i16, ptr %52, align 2, !tbaa !40
  store i16 %54, ptr %7, align 2, !tbaa !40
  %55 = load ptr, ptr %4, align 8, !tbaa !42
  %56 = load i32, ptr %55, align 4, !tbaa !31
  %57 = shl i32 %56, 10
  %58 = load i16, ptr %7, align 2, !tbaa !40
  %59 = zext i16 %58 to i32
  %60 = add nsw i32 %57, %59
  %61 = sub nsw i32 %60, 56613888
  %62 = load ptr, ptr %4, align 8, !tbaa !42
  store i32 %61, ptr %62, align 4, !tbaa !31
  store i8 1, ptr %5, align 1, !tbaa !32
  call void @llvm.lifetime.end.p0(i64 2, ptr %7) #10
  br label %65

63:                                               ; preds = %41
  %64 = load ptr, ptr %4, align 8, !tbaa !42
  store i32 65535, ptr %64, align 4, !tbaa !31
  br label %65

65:                                               ; preds = %63, %49
  br label %67

66:                                               ; preds = %29
  store i8 1, ptr %5, align 1, !tbaa !32
  br label %67

67:                                               ; preds = %66, %65
  br label %68

68:                                               ; preds = %67, %21
  %69 = load i8, ptr %5, align 1, !tbaa !32
  call void @llvm.lifetime.end.p0(i64 8, ptr %6) #10
  call void @llvm.lifetime.end.p0(i64 1, ptr %5) #10
  ret i8 %69
}

; Function Attrs: mustprogress uwtable
define i32 @u_fgetcx_77(ptr noundef %0) #0 {
  %2 = alloca ptr, align 8
  %3 = alloca i32, align 4
  store ptr %0, ptr %2, align 8, !tbaa !3
  call void @llvm.lifetime.start.p0(i64 4, ptr %3) #10
  %4 = load ptr, ptr %2, align 8, !tbaa !3
  %5 = call signext i8 @ufile_getch32_77(ptr noundef %4, ptr noundef %3)
  %6 = load i32, ptr %3, align 4, !tbaa !31
  call void @llvm.lifetime.end.p0(i64 4, ptr %3) #10
  ret i32 %6
}