; Function Attrs: mustprogress uwtable
define range(i32 0, 10559488) i32 @u_fgetcx_77(ptr noundef %0) local_unnamed_addr #0 {
  %2 = getelementptr inbounds nuw i8, ptr %0, i64 24
  %3 = load ptr, ptr %2, align 8, !tbaa !41
  %4 = getelementptr inbounds nuw i8, ptr %3, i64 2
  %5 = getelementptr inbounds nuw i8, ptr %0, i64 32
  %6 = load ptr, ptr %5, align 8, !tbaa !40
  %.not.i = icmp ult ptr %4, %6
  br i1 %.not.i, label %8, label %7

7:                                                ; preds = %1
  tail call void @_Z26ufile_fill_uchar_buffer_77P5UFILE(ptr noundef nonnull %0)
  %.pre.i = load ptr, ptr %2, align 8, !tbaa !41
  %.pre19.i = load ptr, ptr %5, align 8, !tbaa !40
  br label %8

8:                                                ; preds = %7, %1
  %9 = phi ptr [ %.pre19.i, %7 ], [ %6, %1 ]
  %10 = phi ptr [ %.pre.i, %7 ], [ %3, %1 ]
  %11 = icmp ult ptr %10, %9
  br i1 %11, label %12, label %ufile_getch32_77.exit

12:                                               ; preds = %8
  %13 = getelementptr inbounds nuw i8, ptr %10, i64 2
  store ptr %13, ptr %2, align 8, !tbaa !41
  %14 = load i16, ptr %10, align 2, !tbaa !38
  %15 = zext i16 %14 to i32
  %16 = and i32 %15, 64512
  %17 = icmp eq i32 %16, 55296
  br i1 %17, label %18, label %ufile_getch32_77.exit

18:                                               ; preds = %12
  %19 = icmp ult ptr %13, %9
  br i1 %19, label %20, label %ufile_getch32_77.exit

20:                                               ; preds = %18
  %21 = getelementptr inbounds nuw i8, ptr %10, i64 4
  store ptr %21, ptr %2, align 8, !tbaa !41
  %22 = load i16, ptr %13, align 2, !tbaa !38
  %23 = shl nuw nsw i32 %15, 10
  %24 = zext i16 %22 to i32
  %25 = add nsw i32 %23, -56613888
  %26 = add nuw nsw i32 %25, %24
  br label %ufile_getch32_77.exit

ufile_getch32_77.exit:                            ; preds = %18, %20, %8, %12
  %.0 = phi i32 [ %15, %12 ], [ 65535, %8 ], [ %26, %20 ], [ 65535, %18 ]
  ret i32 %.0
}